; Function Attrs: nofree norecurse nosync nounwind memory(readwrite, inaccessiblemem: none) uwtable
define dso_local noundef zeroext i1 @zend_observer_remove_end_handler(ptr noundef readonly captures(none) %0, ptr noundef readnone captures(address) %1, ptr noundef writeonly captures(none) %2) local_unnamed_addr #5 {
  %4 = load i64, ptr getelementptr inbounds nuw (i8, ptr @zend_observers_fcall_list, i64 16), align 8, !tbaa !10
  %5 = getelementptr inbounds nuw i8, ptr %0, i64 56
  %6 = load ptr, ptr %5, align 8, !tbaa !34
  %7 = ptrtoint ptr %6 to i64
  %8 = and i64 %7, 1
  %.not = icmp eq i64 %8, 0
  br i1 %.not, label %13, label %9

9:                                                ; preds = %3
  %10 = load ptr, ptr getelementptr inbounds nuw (i8, ptr @compiler_globals, i64 512), align 8, !tbaa !68
  %11 = getelementptr inbounds i8, ptr %10, i64 %7
  %12 = load ptr, ptr %11, align 8, !tbaa !4
  br label %13

13:                                               ; preds = %3, %9
  %14 = phi ptr [ %12, %9 ], [ %6, %3 ]
  %15 = load i8, ptr %0, align 8, !tbaa !34
  %.not12 = icmp eq i8 %15, 1
  %16 = load i32, ptr @zend_observer_fcall_op_array_extension, align 4
  %17 = load i32, ptr @zend_observer_fcall_internal_function_extension, align 4
  %18 = select i1 %.not12, i32 %17, i32 %16
  %19 = sext i32 %18 to i64
  %20 = getelementptr inbounds ptr, ptr %14, i64 %19
  %21 = getelementptr inbounds nuw ptr, ptr %20, i64 %4
  %22 = getelementptr inbounds nuw ptr, ptr %21, i64 %4
  %23 = getelementptr inbounds i8, ptr %22, i64 -8
  %.not31.not.i = icmp ugt ptr %21, %23
  br i1 %.not31.not.i, label %zend_observer_remove_handler.exit.thread, label %.lr.ph.i

.lr.ph.i:                                         ; preds = %13, %43
  %.02432.i = phi ptr [ %44, %43 ], [ %21, %13 ]
  %24 = load ptr, ptr %.02432.i, align 8, !tbaa !4
  %25 = icmp eq ptr %24, %1
  br i1 %25, label %26, label %43

26:                                               ; preds = %.lr.ph.i
  %27 = icmp eq i64 %4, 1
  br i1 %27, label %34, label %28

28:                                               ; preds = %26
  %29 = icmp eq ptr %.02432.i, %21
  br i1 %29, label %30, label %35

30:                                               ; preds = %28
  %31 = getelementptr inbounds nuw i8, ptr %21, i64 8
  %32 = load ptr, ptr %31, align 8, !tbaa !4
  %33 = icmp eq ptr %32, null
  br i1 %33, label %34, label %35

34:                                               ; preds = %30, %26
  store ptr inttoptr (i64 2 to ptr), ptr %.02432.i, align 8, !tbaa !4
  br label %45

35:                                               ; preds = %30, %28
  %.not27.i = icmp eq ptr %.02432.i, %23
  br i1 %.not27.i, label %41, label %36

36:                                               ; preds = %35
  %37 = getelementptr inbounds nuw i8, ptr %.02432.i, i64 8
  %38 = ptrtoint ptr %23 to i64
  %39 = ptrtoint ptr %.02432.i to i64
  %40 = sub i64 %38, %39
  tail call void @llvm.memmove.p0.p0.i64(ptr nonnull align 8 %.02432.i, ptr nonnull align 8 %37, i64 %40, i1 false)
  br label %41

41:                                               ; preds = %36, %35
  store ptr null, ptr %23, align 8, !tbaa !4
  %42 = load ptr, ptr %.02432.i, align 8, !tbaa !4
  br label %45

43:                                               ; preds = %.lr.ph.i
  %44 = getelementptr inbounds nuw i8, ptr %.02432.i, i64 8
  %.not.not.i = icmp ugt ptr %44, %23
  br i1 %.not.not.i, label %zend_observer_remove_handler.exit.thread, label %.lr.ph.i

45:                                               ; preds = %41, %34
  %storemerge.i = phi ptr [ %42, %41 ], [ null, %34 ]
  store ptr %storemerge.i, ptr %2, align 8, !tbaa !4
  %46 = load ptr, ptr %20, align 8, !tbaa !4
  %47 = icmp eq ptr %46, inttoptr (i64 2 to ptr)
  br i1 %47, label %48, label %zend_observer_remove_handler.exit.thread

48:                                               ; preds = %45
  %49 = load ptr, ptr %21, align 8, !tbaa !4
  %50 = icmp eq ptr %49, inttoptr (i64 2 to ptr)
  br i1 %50, label %51, label %zend_observer_remove_handler.exit.thread

51:                                               ; preds = %48
  store ptr inttoptr (i64 3 to ptr), ptr %20, align 8, !tbaa !4
  br label %zend_observer_remove_handler.exit.thread

zend_observer_remove_handler.exit.thread:         ; preds = %43, %13, %45, %48, %51
  %.not29.i14 = phi i1 [ true, %45 ], [ true, %48 ], [ true, %51 ], [ false, %13 ], [ false, %43 ]
  ret i1 %.not29.i14
}